target datalayout = "e-m:e-p270:32:32-p271:32:32-p272:64:64-i64:64-i128:128-f80:128-n8:16:32:64-S128"
target triple = "x86_64-pc-linux-gnu"

%struct.SDL_VideoDevice = type { ptr, ptr, ptr, ptr, ptr, ptr, ptr, ptr, ptr, ptr, ptr, ptr, ptr, ptr, ptr, ptr, ptr, ptr, ptr, ptr, ptr, ptr, ptr, ptr, ptr, ptr, ptr, ptr, ptr, ptr, ptr, ptr, ptr, ptr, ptr, ptr, ptr, ptr, ptr, ptr, ptr, ptr, ptr, ptr, ptr, ptr, ptr, ptr, ptr, ptr, ptr, ptr, ptr, ptr, ptr, ptr, ptr, ptr, ptr, ptr, ptr, ptr, ptr, ptr, ptr, ptr, ptr, ptr, ptr, ptr, ptr, ptr, ptr, ptr, ptr, ptr, ptr, ptr, ptr, ptr, ptr, ptr, ptr, ptr, ptr, ptr, ptr, ptr, ptr, ptr, ptr, ptr, ptr, ptr, ptr, ptr, ptr, i64, i8, i8, i8, ptr, i32, ptr, %struct.SDL_Rect, ptr, ptr, i32, ptr, ptr, ptr, ptr, i64, ptr, i8, i32, i32, %struct.anon, ptr, ptr, ptr, ptr, ptr, ptr, %struct.SDL_AtomicInt, %struct.SDL_AtomicInt, i8, %struct.anon.0, ptr, ptr, ptr, ptr, ptr }
%struct.SDL_Rect = type { i32, i32, i32, i32 }
%struct.anon = type { i32, i32, i32, i32, i32, i32, i32, i32, i32, i32, i32, i32, i32, i32, i32, i32, i32, i32, i32, i32, i32, i32, i32, i32, i32, i32, i32, i32, i32, [256 x i8], ptr }
%struct.SDL_AtomicInt = type { i32 }
%struct.anon.0 = type { ptr, ptr, i32, [256 x i8], ptr }
%struct.SDL_EGL_VideoData = type { ptr, ptr, ptr, ptr, i32, i32, i32, i32, i32, i8, i32, ptr, ptr, ptr, ptr, ptr, ptr, ptr, ptr, ptr, ptr, ptr, ptr, ptr, ptr, ptr, ptr, ptr, ptr, ptr, ptr, ptr, ptr, ptr, ptr, ptr, ptr, ptr }

; Function Attrs: nounwind uwtable
define hidden void @SDL_EGL_UnloadLibrary(ptr noundef %0) #0 {
  %2 = alloca ptr, align 8
  store ptr %0, ptr %2, align 8
  %3 = load ptr, ptr %2, align 8
  %4 = getelementptr inbounds nuw %struct.SDL_VideoDevice, ptr %3, i32 0, i32 130
  %5 = load ptr, ptr %4, align 8
  %6 = icmp ne ptr %5, null
  br i1 %6, label %7, label %70

7:                                                ; preds = %1
  %8 = load ptr, ptr %2, align 8
  %9 = getelementptr inbounds nuw %struct.SDL_VideoDevice, ptr %8, i32 0, i32 130
  %10 = load ptr, ptr %9, align 8
  %11 = getelementptr inbounds nuw %struct.SDL_EGL_VideoData, ptr %10, i32 0, i32 2
  %12 = load ptr, ptr %11, align 8
  %13 = icmp ne ptr %12, null
  br i1 %13, label %14, label %30

14:                                               ; preds = %7
  %15 = load ptr, ptr %2, align 8
  %16 = getelementptr inbounds nuw %struct.SDL_VideoDevice, ptr %15, i32 0, i32 130
  %17 = load ptr, ptr %16, align 8
  %18 = getelementptr inbounds nuw %struct.SDL_EGL_VideoData, ptr %17, i32 0, i32 13
  %19 = load ptr, ptr %18, align 8
  %20 = load ptr, ptr %2, align 8
  %21 = getelementptr inbounds nuw %struct.SDL_VideoDevice, ptr %20, i32 0, i32 130
  %22 = load ptr, ptr %21, align 8
  %23 = getelementptr inbounds nuw %struct.SDL_EGL_VideoData, ptr %22, i32 0, i32 2
  %24 = load ptr, ptr %23, align 8
  %25 = call i32 %19(ptr noundef %24)
  %26 = load ptr, ptr %2, align 8
  %27 = getelementptr inbounds nuw %struct.SDL_VideoDevice, ptr %26, i32 0, i32 130
  %28 = load ptr, ptr %27, align 8
  %29 = getelementptr inbounds nuw %struct.SDL_EGL_VideoData, ptr %28, i32 0, i32 2
  store ptr null, ptr %29, align 8
  br label %30

30:                                               ; preds = %14, %7
  %31 = load ptr, ptr %2, align 8
  %32 = getelementptr inbounds nuw %struct.SDL_VideoDevice, ptr %31, i32 0, i32 130
  %33 = load ptr, ptr %32, align 8
  %34 = getelementptr inbounds nuw %struct.SDL_EGL_VideoData, ptr %33, i32 0, i32 1
  %35 = load ptr, ptr %34, align 8
  %36 = icmp ne ptr %35, null
  br i1 %36, label %37, label %47

37:                                               ; preds = %30
  %38 = load ptr, ptr %2, align 8
  %39 = getelementptr inbounds nuw %struct.SDL_VideoDevice, ptr %38, i32 0, i32 130
  %40 = load ptr, ptr %39, align 8
  %41 = getelementptr inbounds nuw %struct.SDL_EGL_VideoData, ptr %40, i32 0, i32 1
  %42 = load ptr, ptr %41, align 8
  call void @SDL_UnloadObject_REAL(ptr noundef %42)
  %43 = load ptr, ptr %2, align 8
  %44 = getelementptr inbounds nuw %struct.SDL_VideoDevice, ptr %43, i32 0, i32 130
  %45 = load ptr, ptr %44, align 8
  %46 = getelementptr inbounds nuw %struct.SDL_EGL_VideoData, ptr %45, i32 0, i32 1
  store ptr null, ptr %46, align 8
  br label %47

47:                                               ; preds = %37, %30
  %48 = load ptr, ptr %2, align 8
  %49 = getelementptr inbounds nuw %struct.SDL_VideoDevice, ptr %48, i32 0, i32 130
  %50 = load ptr, ptr %49, align 8
  %51 = getelementptr inbounds nuw %struct.SDL_EGL_VideoData, ptr %50, i32 0, i32 0
  %52 = load ptr, ptr %51, align 8
  %53 = icmp ne ptr %52, null
  br i1 %53, label %54, label %64

54:                                               ; preds = %47
  %55 = load ptr, ptr %2, align 8
  %56 = getelementptr inbounds nuw %struct.SDL_VideoDevice, ptr %55, i32 0, i32 130
  %57 = load ptr, ptr %56, align 8
  %58 = getelementptr inbounds nuw %struct.SDL_EGL_VideoData, ptr %57, i32 0, i32 0
  %59 = load ptr, ptr %58, align 8
  call void @SDL_UnloadObject_REAL(ptr noundef %59)
  %60 = load ptr, ptr %2, align 8
  %61 = getelementptr inbounds nuw %struct.SDL_VideoDevice, ptr %60, i32 0, i32 130
  %62 = load ptr, ptr %61, align 8
  %63 = getelementptr inbounds nuw %struct.SDL_EGL_VideoData, ptr %62, i32 0, i32 0
  store ptr null, ptr %63, align 8
  br label %64

64:                                               ; preds = %54, %47
  %65 = load ptr, ptr %2, align 8
  %66 = getelementptr inbounds nuw %struct.SDL_VideoDevice, ptr %65, i32 0, i32 130
  %67 = load ptr, ptr %66, align 8
  call void @SDL_free_REAL(ptr noundef %67)
  %68 = load ptr, ptr %2, align 8
  %69 = getelementptr inbounds nuw %struct.SDL_VideoDevice, ptr %68, i32 0, i32 130
  store ptr null, ptr %69, align 8
  br label %70

70:                                               ; preds = %64, %1
  ret void
}