; Function Attrs: nounwind uwtable
define hidden void @SDL_EGL_UnloadLibrary(ptr noundef captures(none) %0) local_unnamed_addr #0 {
  %2 = getelementptr inbounds nuw i8, ptr %0, i64 1672
  %3 = load ptr, ptr %2, align 8
  %.not = icmp eq ptr %3, null
  br i1 %.not, label %27, label %4

4:                                                ; preds = %1
  %5 = getelementptr inbounds nuw i8, ptr %3, i64 16
  %6 = load ptr, ptr %5, align 8
  %.not16 = icmp eq ptr %6, null
  br i1 %.not16, label %13, label %7

7:                                                ; preds = %4
  %8 = getelementptr inbounds nuw i8, ptr %3, i64 80
  %9 = load ptr, ptr %8, align 8
  %10 = tail call i32 %9(ptr noundef nonnull %6) #7
  %11 = load ptr, ptr %2, align 8
  %12 = getelementptr inbounds nuw i8, ptr %11, i64 16
  store ptr null, ptr %12, align 8
  %.pre = load ptr, ptr %2, align 8
  br label %13

13:                                               ; preds = %7, %4
  %14 = phi ptr [ %.pre, %7 ], [ %3, %4 ]
  %15 = getelementptr inbounds nuw i8, ptr %14, i64 8
  %16 = load ptr, ptr %15, align 8
  %.not17 = icmp eq ptr %16, null
  br i1 %.not17, label %20, label %17

17:                                               ; preds = %13
  tail call void @SDL_UnloadObject_REAL(ptr noundef nonnull %16) #7
  %18 = load ptr, ptr %2, align 8
  %19 = getelementptr inbounds nuw i8, ptr %18, i64 8
  store ptr null, ptr %19, align 8
  %.pre19 = load ptr, ptr %2, align 8
  br label %20

20:                                               ; preds = %17, %13
  %21 = phi ptr [ %.pre19, %17 ], [ %14, %13 ]
  %22 = load ptr, ptr %21, align 8
  %.not18 = icmp eq ptr %22, null
  br i1 %.not18, label %25, label %23

23:                                               ; preds = %20
  tail call void @SDL_UnloadObject_REAL(ptr noundef nonnull %22) #7
  %24 = load ptr, ptr %2, align 8
  store ptr null, ptr %24, align 8
  %.pre20 = load ptr, ptr %2, align 8
  br label %25

25:                                               ; preds = %23, %20
  %26 = phi ptr [ %.pre20, %23 ], [ %21, %20 ]
  tail call void @SDL_free_REAL(ptr noundef %26) #7
  store ptr null, ptr %2, align 8
  br label %27

27:                                               ; preds = %25, %1
  ret void
}